; Function Attrs: mustprogress nounwind uwtable
define dso_local noundef zeroext i1 @_ZNK5clang13CXXMethodDecl8isStaticEv(ptr noundef nonnull align 8 dereferenceable(168) %0) local_unnamed_addr #1 align 2 {
  %2 = load ptr, ptr %0, align 8
  %3 = getelementptr inbounds nuw i8, ptr %2, i64 32
  %4 = load ptr, ptr %3, align 8
  %5 = tail call noundef ptr %4(ptr noundef nonnull align 8 dereferenceable(168) %0) #25
  %6 = getelementptr inbounds nuw i8, ptr %5, i64 80
  %7 = load i16, ptr %6, align 8
  %.mask = and i16 %7, -8192
  %8 = icmp eq i16 %.mask, 16384
  br i1 %8, label %_ZNK5clang15DeclarationName24getCXXOverloadedOperatorEv.exit, label %9

9:                                                ; preds = %1
  %10 = getelementptr inbounds nuw i8, ptr %0, i64 40
  %.sroa.0.0.copyload.i = load i64, ptr %10, align 8
  %11 = and i64 %.sroa.0.0.copyload.i, 7
  %12 = icmp eq i64 %11, 6
  br i1 %12, label %13, label %_ZNK5clang15DeclarationName24getCXXOverloadedOperatorEv.exit

13:                                               ; preds = %9
  %14 = and i64 %.sroa.0.0.copyload.i, -8
  %15 = inttoptr i64 %14 to ptr
  %16 = load i32, ptr %15, align 8
  %17 = add i32 %16, -1
  %18 = icmp ult i32 %17, 4
  br label %_ZNK5clang15DeclarationName24getCXXOverloadedOperatorEv.exit

_ZNK5clang15DeclarationName24getCXXOverloadedOperatorEv.exit: ; preds = %13, %9, %1
  %.0 = phi i1 [ true, %1 ], [ %18, %13 ], [ false, %9 ]
  ret i1 %.0
}